target datalayout = "e-m:e-p270:32:32-p271:32:32-p272:64:64-i64:64-i128:128-f80:128-n8:16:32:64-S128"
target triple = "x86_64-pc-linux-gnu"

%struct.MvcCoverStruct = type { i32, i32, i32, %struct.MvcListStruct, ptr, i32, ptr, ptr, ptr }
%struct.MvcListStruct = type { ptr, ptr, i32 }

; Function Attrs: nounwind uwtable
define void @Mvc_CoverAllocateArrayCubes(ptr noundef %0) #0 {
  %2 = alloca ptr, align 8
  store ptr %0, ptr %2, align 8, !tbaa !13
  %3 = load ptr, ptr %2, align 8, !tbaa !13
  %4 = getelementptr inbounds nuw %struct.MvcCoverStruct, ptr %3, i32 0, i32 5
  %5 = load i32, ptr %4, align 8, !tbaa !27
  %6 = load ptr, ptr %2, align 8, !tbaa !13
  %7 = getelementptr inbounds nuw %struct.MvcCoverStruct, ptr %6, i32 0, i32 3
  %8 = getelementptr inbounds nuw %struct.MvcListStruct, ptr %7, i32 0, i32 2
  %9 = load i32, ptr %8, align 8, !tbaa !24
  %10 = icmp slt i32 %5, %9
  br i1 %10, label %11, label %53

11:                                               ; preds = %1
  %12 = load ptr, ptr %2, align 8, !tbaa !13
  %13 = getelementptr inbounds nuw %struct.MvcCoverStruct, ptr %12, i32 0, i32 5
  %14 = load i32, ptr %13, align 8, !tbaa !27
  %15 = icmp sgt i32 %14, 0
  br i1 %15, label %16, label %37

16:                                               ; preds = %11
  %17 = load ptr, ptr %2, align 8, !tbaa !13
  %18 = getelementptr inbounds nuw %struct.MvcCoverStruct, ptr %17, i32 0, i32 4
  %19 = load ptr, ptr %18, align 8, !tbaa !28
  %20 = icmp ne ptr %19, null
  br i1 %20, label %21, label %36

21:                                               ; preds = %16
  %22 = load ptr, ptr %2, align 8, !tbaa !13
  %23 = getelementptr inbounds nuw %struct.MvcCoverStruct, ptr %22, i32 0, i32 4
  %24 = load ptr, ptr %23, align 8, !tbaa !28
  %25 = icmp ne ptr %24, null
  br i1 %25, label %26, label %32

26:                                               ; preds = %21
  %27 = load ptr, ptr %2, align 8, !tbaa !13
  %28 = getelementptr inbounds nuw %struct.MvcCoverStruct, ptr %27, i32 0, i32 4
  %29 = load ptr, ptr %28, align 8, !tbaa !28
  call void @free(ptr noundef %29) #5
  %30 = load ptr, ptr %2, align 8, !tbaa !13
  %31 = getelementptr inbounds nuw %struct.MvcCoverStruct, ptr %30, i32 0, i32 4
  store ptr null, ptr %31, align 8, !tbaa !28
  br label %33

32:                                               ; preds = %21
  br label %33

33:                                               ; preds = %32, %26
  %34 = load ptr, ptr %2, align 8, !tbaa !13
  %35 = getelementptr inbounds nuw %struct.MvcCoverStruct, ptr %34, i32 0, i32 4
  store ptr null, ptr %35, align 8, !tbaa !28
  br label %36

36:                                               ; preds = %33, %16
  br label %37

37:                                               ; preds = %36, %11
  %38 = load ptr, ptr %2, align 8, !tbaa !13
  %39 = getelementptr inbounds nuw %struct.MvcCoverStruct, ptr %38, i32 0, i32 3
  %40 = getelementptr inbounds nuw %struct.MvcListStruct, ptr %39, i32 0, i32 2
  %41 = load i32, ptr %40, align 8, !tbaa !24
  %42 = load ptr, ptr %2, align 8, !tbaa !13
  %43 = getelementptr inbounds nuw %struct.MvcCoverStruct, ptr %42, i32 0, i32 5
  store i32 %41, ptr %43, align 8, !tbaa !27
  %44 = load ptr, ptr %2, align 8, !tbaa !13
  %45 = getelementptr inbounds nuw %struct.MvcCoverStruct, ptr %44, i32 0, i32 5
  %46 = load i32, ptr %45, align 8, !tbaa !27
  %47 = sext i32 %46 to i64
  %48 = mul i64 %47, 8
  %49 = mul i64 1, %48
  %50 = call noalias ptr @malloc(i64 noundef %49) #6
  %51 = load ptr, ptr %2, align 8, !tbaa !13
  %52 = getelementptr inbounds nuw %struct.MvcCoverStruct, ptr %51, i32 0, i32 4
  store ptr %50, ptr %52, align 8, !tbaa !28
  br label %53

53:                                               ; preds = %37, %1
  ret void
}