; Function Attrs: mustprogress nounwind willreturn uwtable
define void @Mvc_CoverAllocateArrayCubes(ptr noundef captures(none) %0) local_unnamed_addr #5 {
  %2 = getelementptr inbounds nuw i8, ptr %0, i64 48
  %3 = load i32, ptr %2, align 8, !tbaa !20
  %4 = getelementptr inbounds nuw i8, ptr %0, i64 32
  %5 = load i32, ptr %4, align 8, !tbaa !34
  %6 = icmp slt i32 %3, %5
  br i1 %6, label %7, label %19

7:                                                ; preds = %1
  %8 = icmp sgt i32 %3, 0
  br i1 %8, label %9, label %13

9:                                                ; preds = %7
  %10 = getelementptr inbounds nuw i8, ptr %0, i64 40
  %11 = load ptr, ptr %10, align 8, !tbaa !21
  %.not = icmp eq ptr %11, null
  br i1 %.not, label %13, label %12

12:                                               ; preds = %9
  tail call void @free(ptr noundef nonnull %11) #7
  %.pre = load i32, ptr %4, align 8, !tbaa !34
  br label %13

13:                                               ; preds = %9, %12, %7
  %14 = phi i32 [ %5, %9 ], [ %.pre, %12 ], [ %5, %7 ]
  store i32 %14, ptr %2, align 8, !tbaa !20
  %15 = sext i32 %14 to i64
  %16 = shl nsw i64 %15, 3
  %17 = tail call noalias ptr @malloc(i64 noundef %16) #8
  %18 = getelementptr inbounds nuw i8, ptr %0, i64 40
  store ptr %17, ptr %18, align 8, !tbaa !21
  br label %19

19:                                               ; preds = %13, %1
  ret void
}